target datalayout = "e-m:e-p270:32:32-p271:32:32-p272:64:64-i64:64-i128:128-f80:128-n8:16:32:64-S128"
target triple = "x86_64-pc-linux-gnu"

%"class.absl::debugging_internal::ElfMemImage" = type { ptr, ptr, ptr, ptr, ptr, i32, i64, i64, i64 }

@.str = private unnamed_addr constant [140 x i8] c"generated/home/dtcxzyw/WorkSpace/Projects/compilers/llvm-opt-benchmark/bench/abseil-cpp/abseil-cpp/absl/debugging/internal/elf_mem_image.cc\00", align 1
@.str.1 = private unnamed_addr constant [20 x i8] c"Check %s failed: %s\00", align 1
@.str.4 = private unnamed_addr constant [24 x i8] c"index < GetNumSymbols()\00", align 1
@.str.5 = private unnamed_addr constant [19 x i8] c"index out of range\00", align 1

; Function Attrs: mustprogress nounwind uwtable
define dso_local noundef i32 @_ZNK4absl18debugging_internal11ElfMemImage13GetNumSymbolsEv(ptr noundef nonnull align 8 dereferenceable(72) %0) #4 align 2 {
  %2 = alloca ptr, align 8
  store ptr %0, ptr %2, align 8, !tbaa !4
  %3 = load ptr, ptr %2, align 8
  %4 = getelementptr inbounds nuw %"class.absl::debugging_internal::ElfMemImage", ptr %3, i32 0, i32 5
  %5 = load i32, ptr %4, align 8, !tbaa !21
  ret i32 %5
}

; Function Attrs: mustprogress uwtable
define dso_local noundef ptr @_ZNK4absl18debugging_internal11ElfMemImage9GetVersymEj(ptr noundef nonnull align 8 dereferenceable(72) %0, i32 noundef %1) #0 align 2 {
  %3 = alloca ptr, align 8
  %4 = alloca i32, align 4
  %5 = alloca ptr, align 8
  store ptr %0, ptr %3, align 8, !tbaa !4
  store i32 %1, ptr %4, align 4, !tbaa !26
  %6 = load ptr, ptr %3, align 8
  br label %7

7:                                                ; preds = %2
  %8 = load i32, ptr %4, align 4, !tbaa !26
  %9 = call noundef i32 @_ZNK4absl18debugging_internal11ElfMemImage13GetNumSymbolsEv(ptr noundef nonnull align 8 dereferenceable(72) %6)
  %10 = icmp ult i32 %8, %9
  %11 = xor i1 %10, true
  %12 = zext i1 %11 to i64
  %13 = call i64 @llvm.expect.i64(i64 %12, i64 0)
  %14 = icmp ne i64 %13, 0
  br i1 %14, label %15, label %21

15:                                               ; preds = %7
  br label %16

16:                                               ; preds = %15
  call void @llvm.lifetime.start.p0(i64 8, ptr %5) #7
  store ptr getelementptr (i8, ptr @.str, i64 123), ptr %5, align 8, !tbaa !10
  call void (i32, ptr, i32, ptr, ...) @_ZN4absl16raw_log_internal6RawLogENS_11LogSeverityEPKciS3_z(i32 noundef 3, ptr noundef getelementptr (i8, ptr @.str, i64 123), i32 noundef 100, ptr noundef @.str.1, ptr noundef @.str.4, ptr noundef @.str.5)
  br label %17

17:                                               ; preds = %16
  unreachable

18:                                               ; No predecessors!
  br label %19

19:                                               ; preds = %18
  call void @llvm.lifetime.end.p0(i64 8, ptr %5) #7
  br label %20

20:                                               ; preds = %19
  br label %21

21:                                               ; preds = %20, %7
  br label %22

22:                                               ; preds = %21
  %23 = getelementptr inbounds nuw %"class.absl::debugging_internal::ElfMemImage", ptr %6, i32 0, i32 2
  %24 = load ptr, ptr %23, align 8, !tbaa !19
  %25 = load i32, ptr %4, align 4, !tbaa !26
  %26 = zext i32 %25 to i64
  %27 = getelementptr inbounds nuw i16, ptr %24, i64 %26
  ret ptr %27
}